; ModuleID = '14/1245.c'
source_filename = "14/1245.c"
target datalayout = "e-m:e-p270:32:32-p271:32:32-p272:64:64-i64:64-f80:128-n8:16:32:64-S128"
target triple = "x86_64-pc-linux-gnu"

%struct.student = type { i32, i32, i32, i32, %struct.student* }

@.str = private unnamed_addr constant [3 x i8] c"%d\00", align 1
@.str.1 = private unnamed_addr constant [9 x i8] c"%d %d %d\00", align 1
@.str.2 = private unnamed_addr constant [7 x i8] c"%d %d\0A\00", align 1

; Function Attrs: noinline nounwind uwtable
define dso_local void @main() #0 {
  %1 = alloca i32, align 4
  %2 = alloca i32, align 4
  %3 = alloca i32, align 4
  %4 = alloca %struct.student*, align 8
  %5 = alloca %struct.student*, align 8
  %6 = alloca %struct.student*, align 8
  %7 = alloca %struct.student*, align 8
  %8 = call i32 (i8*, ...) @__isoc99_scanf(i8* getelementptr inbounds ([3 x i8], [3 x i8]* @.str, i64 0, i64 0), i32* %1)
  %9 = call noalias i8* @malloc(i64 24) #3
  %10 = bitcast i8* %9 to %struct.student*
  store %struct.student* %10, %struct.student** %4, align 8
  %11 = load %struct.student*, %struct.student** %4, align 8
  %12 = getelementptr inbounds %struct.student, %struct.student* %11, i32 0, i32 4
  store %struct.student* null, %struct.student** %12, align 8
  store i32 0, i32* %2, align 4
  br label %13

13:                                               ; preds = %74, %0
  %14 = load i32, i32* %2, align 4
  %15 = load i32, i32* %1, align 4
  %16 = icmp slt i32 %14, %15
  br i1 %16, label %17, label %77

17:                                               ; preds = %13
  %18 = call noalias i8* @malloc(i64 24) #3
  %19 = bitcast i8* %18 to %struct.student*
  store %struct.student* %19, %struct.student** %7, align 8
  %20 = load %struct.student*, %struct.student** %7, align 8
  %21 = getelementptr inbounds %struct.student, %struct.student* %20, i32 0, i32 0
  %22 = load %struct.student*, %struct.student** %7, align 8
  %23 = getelementptr inbounds %struct.student, %struct.student* %22, i32 0, i32 1
  %24 = load %struct.student*, %struct.student** %7, align 8
  %25 = getelementptr inbounds %struct.student, %struct.student* %24, i32 0, i32 2
  %26 = call i32 (i8*, ...) @__isoc99_scanf(i8* getelementptr inbounds ([9 x i8], [9 x i8]* @.str.1, i64 0, i64 0), i32* %21, i32* %23, i32* %25)
  %27 = load %struct.student*, %struct.student** %7, align 8
  %28 = getelementptr inbounds %struct.student, %struct.student* %27, i32 0, i32 1
  %29 = load i32, i32* %28, align 4
  %30 = load %struct.student*, %struct.student** %7, align 8
  %31 = getelementptr inbounds %struct.student, %struct.student* %30, i32 0, i32 2
  %32 = load i32, i32* %31, align 8
  %33 = add nsw i32 %29, %32
  %34 = load %struct.student*, %struct.student** %7, align 8
  %35 = getelementptr inbounds %struct.student, %struct.student* %34, i32 0, i32 3
  store i32 %33, i32* %35, align 4
  %36 = load %struct.student*, %struct.student** %7, align 8
  %37 = getelementptr inbounds %struct.student, %struct.student* %36, i32 0, i32 4
  store %struct.student* null, %struct.student** %37, align 8
  %38 = load %struct.student*, %struct.student** %4, align 8
  store %struct.student* %38, %struct.student** %5, align 8
  %39 = load %struct.student*, %struct.student** %5, align 8
  %40 = getelementptr inbounds %struct.student, %struct.student* %39, i32 0, i32 4
  %41 = load %struct.student*, %struct.student** %40, align 8
  store %struct.student* %41, %struct.student** %6, align 8
  store i32 0, i32* %3, align 4
  br label %42

42:                                               ; preds = %65, %17
  %43 = load %struct.student*, %struct.student** %6, align 8
  %44 = icmp ne %struct.student* %43, null
  br i1 %44, label %45, label %53

45:                                               ; preds = %42
  %46 = load %struct.student*, %struct.student** %7, align 8
  %47 = getelementptr inbounds %struct.student, %struct.student* %46, i32 0, i32 3
  %48 = load i32, i32* %47, align 4
  %49 = load %struct.student*, %struct.student** %6, align 8
  %50 = getelementptr inbounds %struct.student, %struct.student* %49, i32 0, i32 3
  %51 = load i32, i32* %50, align 4
  %52 = icmp sle i32 %48, %51
  br label %53

53:                                               ; preds = %45, %42
  %54 = phi i1 [ false, %42 ], [ %52, %45 ]
  br i1 %54, label %55, label %66

55:                                               ; preds = %53
  %56 = load %struct.student*, %struct.student** %6, align 8
  store %struct.student* %56, %struct.student** %5, align 8
  %57 = load %struct.student*, %struct.student** %6, align 8
  %58 = getelementptr inbounds %struct.student, %struct.student* %57, i32 0, i32 4
  %59 = load %struct.student*, %struct.student** %58, align 8
  store %struct.student* %59, %struct.student** %6, align 8
  %60 = load i32, i32* %3, align 4
  %61 = add nsw i32 %60, 1
  store i32 %61, i32* %3, align 4
  %62 = load i32, i32* %3, align 4
  %63 = icmp sgt i32 %62, 3
  br i1 %63, label %64, label %65

64:                                               ; preds = %55
  br label %73

65:                                               ; preds = %55
  br label %42

66:                                               ; preds = %53
  %67 = load %struct.student*, %struct.student** %7, align 8
  %68 = load %struct.student*, %struct.student** %5, align 8
  %69 = getelementptr inbounds %struct.student, %struct.student* %68, i32 0, i32 4
  store %struct.student* %67, %struct.student** %69, align 8
  %70 = load %struct.student*, %struct.student** %6, align 8
  %71 = load %struct.student*, %struct.student** %7, align 8
  %72 = getelementptr inbounds %struct.student, %struct.student* %71, i32 0, i32 4
  store %struct.student* %70, %struct.student** %72, align 8
  br label %73

73:                                               ; preds = %66, %64
  br label %74

74:                                               ; preds = %73
  %75 = load i32, i32* %2, align 4
  %76 = add nsw i32 %75, 1
  store i32 %76, i32* %2, align 4
  br label %13

77:                                               ; preds = %13
  %78 = load %struct.student*, %struct.student** %4, align 8
  %79 = getelementptr inbounds %struct.student, %struct.student* %78, i32 0, i32 4
  %80 = load %struct.student*, %struct.student** %79, align 8
  store %struct.student* %80, %struct.student** %6, align 8
  store i32 0, i32* %2, align 4
  br label %81

81:                                               ; preds = %95, %77
  %82 = load i32, i32* %2, align 4
  %83 = icmp slt i32 %82, 3
  br i1 %83, label %84, label %98

84:                                               ; preds = %81
  %85 = load %struct.student*, %struct.student** %6, align 8
  %86 = getelementptr inbounds %struct.student, %struct.student* %85, i32 0, i32 0
  %87 = load i32, i32* %86, align 8
  %88 = load %struct.student*, %struct.student** %6, align 8
  %89 = getelementptr inbounds %struct.student, %struct.student* %88, i32 0, i32 3
  %90 = load i32, i32* %89, align 4
  %91 = call i32 (i8*, ...) @printf(i8* getelementptr inbounds ([7 x i8], [7 x i8]* @.str.2, i64 0, i64 0), i32 %87, i32 %90)
  %92 = load %struct.student*, %struct.student** %6, align 8
  %93 = getelementptr inbounds %struct.student, %struct.student* %92, i32 0, i32 4
  %94 = load %struct.student*, %struct.student** %93, align 8
  store %struct.student* %94, %struct.student** %6, align 8
  br label %95

95:                                               ; preds = %84
  %96 = load i32, i32* %2, align 4
  %97 = add nsw i32 %96, 1
  store i32 %97, i32* %2, align 4
  br label %81

98:                                               ; preds = %81
  ret void
}

declare dso_local i32 @__isoc99_scanf(i8*, ...) #1

; Function Attrs: nounwind
declare dso_local noalias i8* @malloc(i64) #2

declare dso_local i32 @printf(i8*, ...) #1


!llvm.module.flags = !{!0}
!llvm.ident = !{!1}

!0 = !{i32 1, !"wchar_size", i32 4}
!1 = !{!"clang version 10.0.0-4ubuntu1 "}
